; Function Attrs: mustprogress uwtable
define internal noundef ptr @"_ZZN4pkpy15__init_builtinsEPNS_2VMEEN5$_1318__invokeES1_PNS_8PyObjectES4_"(ptr noundef %0, ptr nocapture noundef readonly %1, ptr noundef %2) #4 align 2 {
  %4 = ptrtoint ptr %2 to i64
  %5 = and i64 %4, 3
  %6 = icmp eq i64 %5, 2
  br i1 %6, label %"_ZZN4pkpy15__init_builtinsEPNS_2VMEENK5$_131clES1_PNS_8PyObjectES4_.exit", label %_ZN4pkpy7is_typeEPNS_8PyObjectENS_4TypeE.exit.i

_ZN4pkpy7is_typeEPNS_8PyObjectENS_4TypeE.exit.i:  ; preds = %3
  %7 = getelementptr inbounds i8, ptr %2, i64 10
  %8 = load i16, ptr %7, align 2
  %9 = icmp eq i16 %8, 6
  br i1 %9, label %10, label %"_ZZN4pkpy15__init_builtinsEPNS_2VMEENK5$_131clES1_PNS_8PyObjectES4_.exit"

10:                                               ; preds = %_ZN4pkpy7is_typeEPNS_8PyObjectENS_4TypeE.exit.i
  %11 = getelementptr inbounds i8, ptr %1, i64 24
  %12 = getelementptr inbounds i8, ptr %2, i64 24
  %13 = load i32, ptr %11, align 8
  %14 = icmp sgt i32 %13, 0
  %.pre8 = load i32, ptr %12, align 8
  br i1 %14, label %.lr.ph.i, label %.critedge.i

.lr.ph.i:                                         ; preds = %10
  %15 = getelementptr inbounds i8, ptr %1, i64 32
  %16 = getelementptr inbounds i8, ptr %2, i64 32
  %17 = icmp sgt i32 %.pre8, 0
  br i1 %17, label %.lr.ph, label %.critedge.i

18:                                               ; preds = %.lr.ph
  %indvars.iv.next.i = add nuw nsw i64 %indvars.iv.i4, 1
  %19 = load i32, ptr %11, align 8
  %20 = sext i32 %19 to i64
  %21 = icmp slt i64 %indvars.iv.next.i, %20
  %.pre.pre = load i32, ptr %12, align 8
  %22 = sext i32 %.pre.pre to i64
  %23 = icmp slt i64 %indvars.iv.next.i, %22
  %or.cond = select i1 %21, i1 %23, i1 false
  br i1 %or.cond, label %.lr.ph, label %.critedge.i, !llvm.loop !160

.lr.ph:                                           ; preds = %.lr.ph.i, %18
  %indvars.iv.i4 = phi i64 [ %indvars.iv.next.i, %18 ], [ 0, %.lr.ph.i ]
  %24 = load ptr, ptr %15, align 8
  %25 = getelementptr inbounds ptr, ptr %24, i64 %indvars.iv.i4
  %26 = load ptr, ptr %25, align 8
  %27 = load ptr, ptr %16, align 8
  %28 = getelementptr inbounds ptr, ptr %27, i64 %indvars.iv.i4
  %29 = load ptr, ptr %28, align 8
  %30 = tail call noundef zeroext i1 @_ZN4pkpy2VM5py_eqEPNS_8PyObjectES2_(ptr noundef nonnull align 8 dereferenceable(264913) %0, ptr noundef %26, ptr noundef %29)
  br i1 %30, label %18, label %31

31:                                               ; preds = %.lr.ph
  %32 = load ptr, ptr %15, align 8
  %33 = getelementptr inbounds ptr, ptr %32, i64 %indvars.iv.i4
  %34 = load ptr, ptr %33, align 8
  %35 = load ptr, ptr %16, align 8
  %36 = getelementptr inbounds ptr, ptr %35, i64 %indvars.iv.i4
  %37 = load ptr, ptr %36, align 8
  %38 = tail call noundef zeroext i1 @_ZN4pkpy2VM5py_geEPNS_8PyObjectES2_(ptr noundef nonnull align 8 dereferenceable(264913) %0, ptr noundef %34, ptr noundef %37)
  %.in.v.i.i = select i1 %38, i64 264528, i64 264536
  br label %"_ZZN4pkpy15__init_builtinsEPNS_2VMEENK5$_131clES1_PNS_8PyObjectES4_.exit"

.critedge.i:                                      ; preds = %18, %.lr.ph.i, %10
  %39 = phi i32 [ %.pre8, %10 ], [ %.pre8, %.lr.ph.i ], [ %.pre.pre, %18 ]
  %.lcssa.i = phi i32 [ %13, %10 ], [ %13, %.lr.ph.i ], [ %19, %18 ]
  %.not.i = icmp slt i32 %.lcssa.i, %39
  %.in.v.i26.i = select i1 %.not.i, i64 264536, i64 264528
  br label %"_ZZN4pkpy15__init_builtinsEPNS_2VMEENK5$_131clES1_PNS_8PyObjectES4_.exit"

"_ZZN4pkpy15__init_builtinsEPNS_2VMEENK5$_131clES1_PNS_8PyObjectES4_.exit": ; preds = %3, %_ZN4pkpy7is_typeEPNS_8PyObjectENS_4TypeE.exit.i, %31, %.critedge.i
  %.in.v.i26.sink.i = phi i64 [ %.in.v.i26.i, %.critedge.i ], [ %.in.v.i.i, %31 ], [ 264544, %3 ], [ 264544, %_ZN4pkpy7is_typeEPNS_8PyObjectENS_4TypeE.exit.i ]
  %.in.i27.i = getelementptr inbounds i8, ptr %0, i64 %.in.v.i26.sink.i
  %.025.i = load ptr, ptr %.in.i27.i, align 8
  ret ptr %.025.i
}